target datalayout = "e-m:e-p270:32:32-p271:32:32-p272:64:64-i64:64-i128:128-f80:128-n8:16:32:64-S128"
target triple = "x86_64-pc-linux-gnu"

%struct.darktable_t = type { %struct.dt_codepath_t, i32, i32, ptr, ptr, ptr, ptr, ptr, ptr, ptr, ptr, ptr, ptr, ptr, ptr, ptr, ptr, ptr, ptr, ptr, ptr, ptr, ptr, ptr, ptr, ptr, ptr, ptr, ptr, ptr, [64 x %struct.dt_pthread_mutex_t], %struct.dt_pthread_mutex_t, %struct.dt_pthread_mutex_t, %struct.dt_pthread_mutex_t, %struct.dt_pthread_mutex_t, %struct.dt_pthread_mutex_t, ptr, ptr, ptr, ptr, ptr, ptr, ptr, ptr, ptr, ptr, ptr, ptr, ptr, %struct.dt_lua_state_t, ptr, double, ptr, i32, [47 x i32], i32, i32, ptr, ptr, %struct.dt_sys_resources_t, %struct.dt_backthumb_t, %struct.dt_gimp_t }
%struct.dt_codepath_t = type { i8, [3 x i8] }
%struct.dt_pthread_mutex_t = type { %union.pthread_mutex_t }
%union.pthread_mutex_t = type { %struct.__pthread_mutex_s }
%struct.__pthread_mutex_s = type { i32, i32, i32, i32, i32, i16, i16, %struct.__pthread_internal_list }
%struct.__pthread_internal_list = type { ptr, ptr }
%struct.dt_lua_state_t = type { i32 }
%struct.dt_sys_resources_t = type { i64, i64, ptr, ptr, i32 }
%struct.dt_backthumb_t = type { double, double, i32, i32, i32, i32 }
%struct.dt_gimp_t = type { i32, ptr, ptr, i32, i32 }
%struct.dt_control_image_enumerator_t = type { ptr, i32, ptr, i32 }
%struct._GList = type { ptr, ptr, ptr }
%struct.timeval = type { i64, i64 }

@darktable = external global %struct.darktable_t, align 8
@.str.82 = private unnamed_addr constant [18 x i8] c"flipping %d image\00", align 1
@.str.83 = private unnamed_addr constant [19 x i8] c"flipping %d images\00", align 1

; Function Attrs: inlinehint nounwind uwtable
define internal double @dt_get_wtime() #5 {
  %1 = alloca %struct.timeval, align 8
  call void @llvm.lifetime.start.p0(i64 16, ptr %1) #14
  %2 = call i32 @gettimeofday(ptr noundef %1, ptr noundef null) #14
  %3 = getelementptr inbounds nuw %struct.timeval, ptr %1, i32 0, i32 0
  %4 = load i64, ptr %3, align 8, !tbaa !263
  %5 = sub nsw i64 %4, 1290608000
  %6 = sitofp i64 %5 to double
  %7 = getelementptr inbounds nuw %struct.timeval, ptr %1, i32 0, i32 1
  %8 = load i64, ptr %7, align 8, !tbaa !265
  %9 = sitofp i64 %8 to double
  %10 = fmul reassoc nsz arcp contract afn double 0x3EB0C6F7A0B5ED8D, %9
  %11 = fadd reassoc nsz arcp contract afn double %6, %10
  call void @llvm.lifetime.end.p0(i64 16, ptr %1) #14
  ret double %11
}

; Function Attrs: nounwind uwtable
define internal void @_update_progress(ptr noundef %0, double noundef %1, ptr noundef %2) #0 {
  %4 = alloca ptr, align 8
  %5 = alloca double, align 8
  %6 = alloca ptr, align 8
  %7 = alloca double, align 8
  store ptr %0, ptr %4, align 8, !tbaa !51
  store double %1, ptr %5, align 8, !tbaa !61
  store ptr %2, ptr %6, align 8, !tbaa !266
  call void @llvm.lifetime.start.p0(i64 8, ptr %7) #14
  %8 = call reassoc nsz arcp contract afn double @dt_get_wtime()
  store double %8, ptr %7, align 8, !tbaa !61
  %9 = load double, ptr %7, align 8, !tbaa !61
  %10 = load ptr, ptr %6, align 8, !tbaa !266
  %11 = load double, ptr %10, align 8, !tbaa !61
  %12 = fadd reassoc nsz arcp contract afn double %11, 5.000000e-01
  %13 = fcmp reassoc nsz arcp contract afn ogt double %9, %12
  br i1 %13, label %14, label %31

14:                                               ; preds = %3
  %15 = load ptr, ptr %4, align 8, !tbaa !51
  %16 = load double, ptr %5, align 8, !tbaa !61
  %17 = fcmp reassoc nsz arcp contract afn ogt double %16, 1.000000e+00
  br i1 %17, label %18, label %19

18:                                               ; preds = %14
  br label %27

19:                                               ; preds = %14
  %20 = load double, ptr %5, align 8, !tbaa !61
  %21 = fcmp reassoc nsz arcp contract afn olt double %20, 0.000000e+00
  br i1 %21, label %22, label %23

22:                                               ; preds = %19
  br label %25

23:                                               ; preds = %19
  %24 = load double, ptr %5, align 8, !tbaa !61
  br label %25

25:                                               ; preds = %23, %22
  %26 = phi reassoc nsz arcp contract afn double [ 0.000000e+00, %22 ], [ %24, %23 ]
  br label %27

27:                                               ; preds = %25, %18
  %28 = phi reassoc nsz arcp contract afn double [ 1.000000e+00, %18 ], [ %26, %25 ]
  call void @dt_control_job_set_progress(ptr noundef %15, double noundef %28)
  %29 = load double, ptr %7, align 8, !tbaa !61
  %30 = load ptr, ptr %6, align 8, !tbaa !266
  store double %29, ptr %30, align 8, !tbaa !61
  br label %31

31:                                               ; preds = %27, %3
  call void @llvm.lifetime.end.p0(i64 8, ptr %7) #14
  ret void
}

; Function Attrs: inlinehint nounwind uwtable
define internal i32 @_job_cancelled(ptr noundef %0) #5 {
  %2 = alloca ptr, align 8
  store ptr %0, ptr %2, align 8, !tbaa !51
  %3 = load ptr, ptr %2, align 8, !tbaa !51
  %4 = call i32 @dt_control_job_get_state(ptr noundef %3)
  %5 = icmp eq i32 %4, 4
  %6 = zext i1 %5 to i32
  ret i32 %6
}

; Function Attrs: nounwind uwtable
define internal i32 @dt_control_flip_images_job_run(ptr noundef %0) #0 {
  %2 = alloca ptr, align 8
  %3 = alloca ptr, align 8
  %4 = alloca i32, align 4
  %5 = alloca ptr, align 8
  %6 = alloca i32, align 4
  %7 = alloca double, align 8
  %8 = alloca [512 x i8], align 16
  %9 = alloca double, align 8
  %10 = alloca i32, align 4
  store ptr %0, ptr %2, align 8, !tbaa !51
  call void @llvm.lifetime.start.p0(i64 8, ptr %3) #14
  %11 = load ptr, ptr %2, align 8, !tbaa !51
  %12 = call ptr @dt_control_job_get_params(ptr noundef %11)
  store ptr %12, ptr %3, align 8, !tbaa !53
  call void @llvm.lifetime.start.p0(i64 4, ptr %4) #14
  %13 = load ptr, ptr %3, align 8, !tbaa !53
  %14 = getelementptr inbounds nuw %struct.dt_control_image_enumerator_t, ptr %13, i32 0, i32 1
  %15 = load i32, ptr %14, align 8, !tbaa !58
  store i32 %15, ptr %4, align 4, !tbaa !50
  call void @llvm.lifetime.start.p0(i64 8, ptr %5) #14
  %16 = load ptr, ptr %3, align 8, !tbaa !53
  %17 = getelementptr inbounds nuw %struct.dt_control_image_enumerator_t, ptr %16, i32 0, i32 0
  %18 = load ptr, ptr %17, align 8, !tbaa !57
  store ptr %18, ptr %5, align 8, !tbaa !60
  call void @llvm.lifetime.start.p0(i64 4, ptr %6) #14
  %19 = load ptr, ptr %5, align 8, !tbaa !60
  %20 = call i32 @g_list_length(ptr noundef %19)
  store i32 %20, ptr %6, align 4, !tbaa !50
  call void @llvm.lifetime.start.p0(i64 8, ptr %7) #14
  store double 0.000000e+00, ptr %7, align 8, !tbaa !61
  call void @llvm.lifetime.start.p0(i64 512, ptr %8) #14
  call void @llvm.memset.p0.i64(ptr align 16 %8, i8 0, i64 512, i1 false)
  %21 = load ptr, ptr getelementptr inbounds nuw (%struct.darktable_t, ptr @darktable, i32 0, i32 27), align 8, !tbaa !92
  call void @dt_undo_start_group(ptr noundef %21, i32 noundef 128)
  %22 = getelementptr inbounds [512 x i8], ptr %8, i64 0, i64 0
  %23 = load i32, ptr %6, align 4, !tbaa !50
  %24 = zext i32 %23 to i64
  %25 = call ptr @dcngettext(ptr noundef null, ptr noundef @.str.82, ptr noundef @.str.83, i64 noundef %24, i32 noundef 5) #14
  %26 = load i32, ptr %6, align 4, !tbaa !50
  %27 = call i32 (ptr, i64, ptr, ...) @snprintf(ptr noundef %22, i64 noundef 512, ptr noundef %25, i32 noundef %26) #14
  %28 = load ptr, ptr %2, align 8, !tbaa !51
  %29 = getelementptr inbounds [512 x i8], ptr %8, i64 0, i64 0
  call void @dt_control_job_set_progress_message(ptr noundef %28, ptr noundef %29)
  call void @llvm.lifetime.start.p0(i64 8, ptr %9) #14
  store double 0.000000e+00, ptr %9, align 8, !tbaa !61
  br label %30

30:                                               ; preds = %65, %1
  %31 = load ptr, ptr %5, align 8, !tbaa !60
  %32 = icmp ne ptr %31, null
  br i1 %32, label %33, label %38

33:                                               ; preds = %30
  %34 = load ptr, ptr %2, align 8, !tbaa !51
  %35 = call i32 @_job_cancelled(ptr noundef %34)
  %36 = icmp ne i32 %35, 0
  %37 = xor i1 %36, true
  br label %38

38:                                               ; preds = %33, %30
  %39 = phi i1 [ false, %30 ], [ %37, %33 ]
  br i1 %39, label %40, label %67

40:                                               ; preds = %38
  call void @llvm.lifetime.start.p0(i64 4, ptr %10) #14
  %41 = load ptr, ptr %5, align 8, !tbaa !60
  %42 = getelementptr inbounds nuw %struct._GList, ptr %41, i32 0, i32 0
  %43 = load ptr, ptr %42, align 8, !tbaa !70
  %44 = ptrtoint ptr %43 to i64
  %45 = trunc i64 %44 to i32
  store i32 %45, ptr %10, align 4, !tbaa !50
  %46 = load i32, ptr %10, align 4, !tbaa !50
  %47 = load i32, ptr %4, align 4, !tbaa !50
  call void @dt_image_flip(i32 noundef %46, i32 noundef %47)
  %48 = load i32, ptr %10, align 4, !tbaa !50
  %49 = call reassoc nsz arcp contract afn float @dt_image_set_aspect_ratio(i32 noundef %48, i32 noundef 0)
  %50 = load i32, ptr %6, align 4, !tbaa !50
  %51 = uitofp i32 %50 to double
  %52 = fdiv reassoc nsz arcp contract afn double 1.000000e+00, %51
  %53 = load double, ptr %7, align 8, !tbaa !61
  %54 = fadd reassoc nsz arcp contract afn double %53, %52
  store double %54, ptr %7, align 8, !tbaa !61
  %55 = load ptr, ptr %2, align 8, !tbaa !51
  %56 = load double, ptr %7, align 8, !tbaa !61
  call void @_update_progress(ptr noundef %55, double noundef %56, ptr noundef %9)
  call void @llvm.lifetime.end.p0(i64 4, ptr %10) #14
  br label %57

57:                                               ; preds = %40
  %58 = load ptr, ptr %5, align 8, !tbaa !60
  %59 = icmp ne ptr %58, null
  br i1 %59, label %60, label %64

60:                                               ; preds = %57
  %61 = load ptr, ptr %5, align 8, !tbaa !60
  %62 = getelementptr inbounds nuw %struct._GList, ptr %61, i32 0, i32 1
  %63 = load ptr, ptr %62, align 8, !tbaa !72
  br label %65

64:                                               ; preds = %57
  br label %65

65:                                               ; preds = %64, %60
  %66 = phi ptr [ %63, %60 ], [ null, %64 ]
  store ptr %66, ptr %5, align 8, !tbaa !60
  br label %30

67:                                               ; preds = %38
  %68 = load ptr, ptr getelementptr inbounds nuw (%struct.darktable_t, ptr @darktable, i32 0, i32 27), align 8, !tbaa !92
  call void @dt_undo_end_group(ptr noundef %68)
  %69 = load ptr, ptr getelementptr inbounds nuw (%struct.darktable_t, ptr @darktable, i32 0, i32 21), align 8, !tbaa !83
  %70 = load ptr, ptr %3, align 8, !tbaa !53
  %71 = getelementptr inbounds nuw %struct.dt_control_image_enumerator_t, ptr %70, i32 0, i32 0
  %72 = load ptr, ptr %71, align 8, !tbaa !57
  %73 = call ptr @g_list_copy(ptr noundef %72)
  call void @dt_collection_update_query(ptr noundef %69, i32 noundef 3, i32 noundef 16, ptr noundef %73)
  call void (...) @dt_control_queue_redraw_center()
  call void @llvm.lifetime.end.p0(i64 8, ptr %9) #14
  call void @llvm.lifetime.end.p0(i64 512, ptr %8) #14
  call void @llvm.lifetime.end.p0(i64 8, ptr %7) #14
  call void @llvm.lifetime.end.p0(i64 4, ptr %6) #14
  call void @llvm.lifetime.end.p0(i64 8, ptr %5) #14
  call void @llvm.lifetime.end.p0(i64 4, ptr %4) #14
  call void @llvm.lifetime.end.p0(i64 8, ptr %3) #14
  ret i32 0
}