; Function Attrs: nounwind uwtable
define internal noundef i32 @dt_control_flip_images_job_run(ptr noundef %0) #0 {
  %2 = alloca %struct.timeval, align 8
  %3 = alloca [512 x i8], align 16
  %4 = tail call ptr @dt_control_job_get_params(ptr noundef %0) #17
  %5 = getelementptr inbounds nuw i8, ptr %4, i64 8
  %6 = load i32, ptr %5, align 8, !tbaa !51
  %7 = load ptr, ptr %4, align 8, !tbaa !50
  %8 = tail call i32 @g_list_length(ptr noundef %7) #17
  call void @llvm.lifetime.start.p0(i64 512, ptr nonnull %3) #17
  call void @llvm.memset.p0.i64(ptr noundef nonnull align 16 dereferenceable(512) %3, i8 0, i64 512, i1 false)
  %9 = load ptr, ptr getelementptr inbounds nuw (i8, ptr @darktable, i64 208), align 8, !tbaa !87
  tail call void @dt_undo_start_group(ptr noundef %9, i32 noundef 128) #17
  %10 = zext i32 %8 to i64
  %11 = tail call ptr @dcngettext(ptr noundef null, ptr noundef nonnull @.str.82, ptr noundef nonnull @.str.83, i64 noundef %10, i32 noundef 5) #17
  %12 = call i32 (ptr, i64, ptr, ...) @snprintf(ptr noundef nonnull dereferenceable(1) %3, i64 noundef 512, ptr noundef %11, i32 noundef %8) #17
  call void @dt_control_job_set_progress_message(ptr noundef %0, ptr noundef nonnull %3) #17
  %.not23 = icmp eq ptr %7, null
  br i1 %.not23, label %.critedge, label %.lr.ph

.lr.ph:                                           ; preds = %1
  %13 = uitofp i32 %8 to double
  %14 = fdiv reassoc nsz arcp contract afn double 1.000000e+00, %13
  %15 = getelementptr inbounds nuw i8, ptr %2, i64 8
  br label %16

16:                                               ; preds = %.lr.ph, %_update_progress.exit
  %.026 = phi ptr [ %7, %.lr.ph ], [ %40, %_update_progress.exit ]
  %.01925 = phi double [ 0.000000e+00, %.lr.ph ], [ %23, %_update_progress.exit ]
  %.02124 = phi double [ 0.000000e+00, %.lr.ph ], [ %.1, %_update_progress.exit ]
  %17 = call i32 @dt_control_job_get_state(ptr noundef %0) #17
  %.not22 = icmp eq i32 %17, 4
  br i1 %.not22, label %.critedge, label %18

18:                                               ; preds = %16
  %19 = load ptr, ptr %.026, align 8, !tbaa !61
  %20 = ptrtoint ptr %19 to i64
  %21 = trunc i64 %20 to i32
  call void @dt_image_flip(i32 noundef %21, i32 noundef %6) #17
  %22 = call reassoc nsz arcp contract afn float @dt_image_set_aspect_ratio(i32 noundef %21, i32 noundef 0) #17
  %23 = fadd reassoc nsz arcp contract afn double %.01925, %14
  call void @llvm.lifetime.start.p0(i64 16, ptr nonnull %2) #17
  %24 = call i32 @gettimeofday(ptr noundef nonnull %2, ptr noundef null) #17
  %25 = load i64, ptr %2, align 8, !tbaa !88
  %26 = add nsw i64 %25, -1290608000
  %27 = sitofp i64 %26 to double
  %28 = load i64, ptr %15, align 8, !tbaa !90
  %29 = sitofp i64 %28 to double
  %30 = fmul reassoc nsz arcp contract afn double %29, 0x3EB0C6F7A0B5ED8D
  %31 = fadd reassoc nsz arcp contract afn double %30, %27
  call void @llvm.lifetime.end.p0(i64 16, ptr nonnull %2) #17
  %32 = fadd reassoc nsz arcp contract afn double %.02124, 5.000000e-01
  %33 = fcmp reassoc nsz arcp contract afn ogt double %31, %32
  br i1 %33, label %34, label %_update_progress.exit

34:                                               ; preds = %18
  %35 = fcmp reassoc nsz arcp contract afn ogt double %23, 1.000000e+00
  %36 = fcmp reassoc nsz arcp contract afn olt double %23, 0.000000e+00
  %37 = select reassoc nsz arcp contract afn i1 %36, double 0.000000e+00, double %23
  %38 = select reassoc nsz arcp contract afn i1 %35, double 1.000000e+00, double %37
  call void @dt_control_job_set_progress(ptr noundef %0, double noundef %38) #17
  br label %_update_progress.exit

_update_progress.exit:                            ; preds = %18, %34
  %.1 = phi nsz double [ %31, %34 ], [ %.02124, %18 ]
  %39 = getelementptr inbounds nuw i8, ptr %.026, i64 8
  %40 = load ptr, ptr %39, align 8, !tbaa !63
  %.not = icmp eq ptr %40, null
  br i1 %.not, label %.critedge, label %16

.critedge:                                        ; preds = %16, %_update_progress.exit, %1
  %41 = load ptr, ptr getelementptr inbounds nuw (i8, ptr @darktable, i64 208), align 8, !tbaa !87
  call void @dt_undo_end_group(ptr noundef %41) #17
  %42 = load ptr, ptr getelementptr inbounds nuw (i8, ptr @darktable, i64 160), align 8, !tbaa !75
  %43 = load ptr, ptr %4, align 8, !tbaa !50
  %44 = call ptr @g_list_copy(ptr noundef %43) #17
  call void @dt_collection_update_query(ptr noundef %42, i32 noundef 3, i32 noundef 16, ptr noundef %44) #17
  call void (...) @dt_control_queue_redraw_center() #17
  call void @llvm.lifetime.end.p0(i64 512, ptr nonnull %3) #17
  ret i32 0
}